target datalayout = "e-m:e-p270:32:32-p271:32:32-p272:64:64-i64:64-i128:128-f80:128-n8:16:32:64-S128"
target triple = "x86_64-pc-linux-gnu"

%struct.WarpedMotionParams = type { [8 x i32], i16, i16, i16, i16, i8, i8 }
%struct.AV1Common = type { %struct.CurrentFrame, %struct.aom_internal_error_info, i32, i32, i32, i32, i32, i32, i8, i8, [33 x i32], i32, ptr, ptr, [8 x i32], %struct.scale_factors, [8 x %struct.scale_factors], [8 x ptr], i32, i32, i32, %struct.FeatureFlags, %struct.CommonModeInfoParams, %struct.CommonQuantParams, %struct.segmentation, ptr, [8 x i8], %struct.loop_filter_info_n, %struct.loopfilter, [3 x %struct.RestorationInfo], ptr, ptr, %struct.yv12_buffer_config, %struct.CdefInfo, %struct.aom_film_grain_t, %struct.DeltaQInfo, [8 x %struct.WarpedMotionParams], %struct.SequenceHeader, ptr, ptr, %struct.CommonTileParams, ptr, %struct.CommonContexts, i32, [8 x i32], ptr, i32, [8 x i32], [8 x i8], i32, i32, i32, i32 }
%struct.CurrentFrame = type { i8, i8, i32, i32, i32, %struct.SkipModeInfo, i32, i32 }
%struct.SkipModeInfo = type { i32, i32, i32, i32 }
%struct.aom_internal_error_info = type { i32, i32, [200 x i8], i32, [1 x %struct.__jmp_buf_tag] }
%struct.__jmp_buf_tag = type { [8 x i64], i32, %struct.__sigset_t }
%struct.__sigset_t = type { [16 x i64] }
%struct.scale_factors = type { i32, i32, i32, i32, ptr, ptr }
%struct.FeatureFlags = type { i8, i8, i8, i8, i8, i8, i8, i8, i8, i8, i8, i8, i8, i8, i32, i32, i8 }
%struct.CommonModeInfoParams = type { i32, i32, i32, i32, i32, ptr, i32, i32, i8, ptr, i32, i32, ptr, ptr, ptr, ptr }
%struct.CommonQuantParams = type { i32, i32, i32, i32, i32, i32, [8 x [2 x i16]], [8 x [2 x i16]], [8 x [2 x i16]], [16 x [3 x [19 x ptr]]], [16 x [3 x [19 x ptr]]], [8 x [19 x ptr]], [8 x [19 x ptr]], [8 x [19 x ptr]], i8, i32, i32, i32 }
%struct.segmentation = type { i8, i8, i8, i8, [8 x [8 x i16]], [8 x i32], i32, i8 }
%struct.loop_filter_info_n = type { [64 x %struct.loop_filter_thresh], [3 x [8 x [2 x [8 x [2 x i8]]]]] }
%struct.loop_filter_thresh = type { [16 x i8], [16 x i8], [16 x i8] }
%struct.loopfilter = type { [2 x i32], i32, i32, i32, i8, i8, [8 x i8], [2 x i8], i32 }
%struct.RestorationInfo = type { i32, i32, i32, i32, i32, ptr, %struct.RestorationStripeBoundaries, i32 }
%struct.RestorationStripeBoundaries = type { ptr, ptr, i32, i32 }
%struct.CdefInfo = type { i32, i32, [16 x i32], [16 x i32], i32 }
%struct.aom_film_grain_t = type { i32, i32, [14 x [2 x i32]], i32, [10 x [2 x i32]], i32, [10 x [2 x i32]], i32, i32, i32, [24 x i32], [25 x i32], [25 x i32], i32, i32, i32, i32, i32, i32, i32, i32, i32, i32, i32, i32, i16 }
%struct.DeltaQInfo = type { i32, i32, i32, i32, i32 }
%struct.SequenceHeader = type { i32, i32, i32, i32, i8, i32, i32, i8, i32, i32, %struct.OrderHintInfo, i8, i8, i8, i8, i8, i8, i8, i8, i8, i8, i8, i8, i8, i8, i32, i8, i8, i32, i32, i32, i32, i32, i32, i32, i8, i8, i32, [32 x i32], i32, %struct.aom_timing, i8, %struct.aom_dec_model_info, i8, [32 x i8], [32 x i8], [33 x %struct.aom_dec_model_op_parameters] }
%struct.OrderHintInfo = type { i32, i32, i32, i32 }
%struct.aom_timing = type { i32, i32, i32, i32 }
%struct.aom_dec_model_info = type { i32, i32, i32, i32 }
%struct.aom_dec_model_op_parameters = type { i32, i64, i64, i32, i32, i32, i32, i32 }
%struct.CommonTileParams = type { i32, i32, i32, i32, i32, i32, i32, i32, i32, i32, i32, i32, i32, i32, i32, [65 x i32], [65 x i32], i32, i32 }
%struct.CommonContexts = type { ptr, [3 x ptr], ptr, i32, i32, i32 }
%struct.yv12_buffer_config = type { %union.anon, %union.anon.0, %union.anon.2, %union.anon.4, %union.anon.6, %union.anon.8, i32, [3 x ptr], ptr, i32, ptr, i64, i32, i64, i32, i32, i32, i32, i32, i32, i8, i32, i32, i32, i32, i32, i32, ptr }
%union.anon = type { %struct.anon }
%struct.anon = type { i32, i32 }
%union.anon.0 = type { %struct.anon.1 }
%struct.anon.1 = type { i32, i32 }
%union.anon.2 = type { %struct.anon.3 }
%struct.anon.3 = type { i32, i32 }
%union.anon.4 = type { %struct.anon.5 }
%struct.anon.5 = type { i32, i32 }
%union.anon.6 = type { %struct.anon.7 }
%struct.anon.7 = type { i32, i32 }
%union.anon.8 = type { %struct.anon.9 }
%struct.anon.9 = type { ptr, ptr, ptr }

; Function Attrs: nounwind uwtable
define hidden void @av1_set_single_tile_decoding_mode(ptr noundef %0) #0 {
  %2 = alloca ptr, align 8
  %3 = alloca ptr, align 8
  %4 = alloca ptr, align 8
  %5 = alloca ptr, align 8
  %6 = alloca i32, align 4
  %7 = alloca i32, align 4
  %8 = alloca i32, align 4
  store ptr %0, ptr %2, align 8
  %9 = load ptr, ptr %2, align 8
  %10 = getelementptr inbounds nuw %struct.AV1Common, ptr %9, i32 0, i32 40
  %11 = getelementptr inbounds nuw %struct.CommonTileParams, ptr %10, i32 0, i32 18
  store i32 0, ptr %11, align 8
  %12 = load ptr, ptr %2, align 8
  %13 = getelementptr inbounds nuw %struct.AV1Common, ptr %12, i32 0, i32 40
  %14 = getelementptr inbounds nuw %struct.CommonTileParams, ptr %13, i32 0, i32 17
  %15 = load i32, ptr %14, align 4
  %16 = icmp ne i32 %15, 0
  br i1 %16, label %17, label %93

17:                                               ; preds = %1
  %18 = load ptr, ptr %2, align 8
  %19 = getelementptr inbounds nuw %struct.AV1Common, ptr %18, i32 0, i32 28
  store ptr %19, ptr %3, align 8
  %20 = load ptr, ptr %2, align 8
  %21 = getelementptr inbounds nuw %struct.AV1Common, ptr %20, i32 0, i32 29
  %22 = getelementptr inbounds [3 x %struct.RestorationInfo], ptr %21, i64 0, i64 0
  store ptr %22, ptr %4, align 8
  %23 = load ptr, ptr %2, align 8
  %24 = getelementptr inbounds nuw %struct.AV1Common, ptr %23, i32 0, i32 33
  store ptr %24, ptr %5, align 8
  %25 = load ptr, ptr %3, align 8
  %26 = getelementptr inbounds nuw %struct.loopfilter, ptr %25, i32 0, i32 0
  %27 = getelementptr inbounds [2 x i32], ptr %26, i64 0, i64 0
  %28 = load i32, ptr %27, align 4
  %29 = icmp ne i32 %28, 0
  br i1 %29, label %36, label %30

30:                                               ; preds = %17
  %31 = load ptr, ptr %3, align 8
  %32 = getelementptr inbounds nuw %struct.loopfilter, ptr %31, i32 0, i32 0
  %33 = getelementptr inbounds [2 x i32], ptr %32, i64 0, i64 1
  %34 = load i32, ptr %33, align 4
  %35 = icmp ne i32 %34, 0
  br label %36

36:                                               ; preds = %30, %17
  %37 = phi i1 [ true, %17 ], [ %35, %30 ]
  %38 = xor i1 %37, true
  %39 = zext i1 %38 to i32
  store i32 %39, ptr %6, align 4
  %40 = load ptr, ptr %5, align 8
  %41 = getelementptr inbounds nuw %struct.CdefInfo, ptr %40, i32 0, i32 4
  %42 = load i32, ptr %41, align 4
  %43 = icmp eq i32 %42, 0
  br i1 %43, label %44, label %56

44:                                               ; preds = %36
  %45 = load ptr, ptr %5, align 8
  %46 = getelementptr inbounds nuw %struct.CdefInfo, ptr %45, i32 0, i32 2
  %47 = getelementptr inbounds [16 x i32], ptr %46, i64 0, i64 0
  %48 = load i32, ptr %47, align 4
  %49 = icmp eq i32 %48, 0
  br i1 %49, label %50, label %56

50:                                               ; preds = %44
  %51 = load ptr, ptr %5, align 8
  %52 = getelementptr inbounds nuw %struct.CdefInfo, ptr %51, i32 0, i32 3
  %53 = getelementptr inbounds [16 x i32], ptr %52, i64 0, i64 0
  %54 = load i32, ptr %53, align 4
  %55 = icmp eq i32 %54, 0
  br label %56

56:                                               ; preds = %50, %44, %36
  %57 = phi i1 [ false, %44 ], [ false, %36 ], [ %55, %50 ]
  %58 = zext i1 %57 to i32
  store i32 %58, ptr %7, align 4
  %59 = load ptr, ptr %4, align 8
  %60 = getelementptr inbounds %struct.RestorationInfo, ptr %59, i64 0
  %61 = getelementptr inbounds nuw %struct.RestorationInfo, ptr %60, i32 0, i32 0
  %62 = load i32, ptr %61, align 8
  %63 = icmp eq i32 %62, 0
  br i1 %63, label %64, label %76

64:                                               ; preds = %56
  %65 = load ptr, ptr %4, align 8
  %66 = getelementptr inbounds %struct.RestorationInfo, ptr %65, i64 1
  %67 = getelementptr inbounds nuw %struct.RestorationInfo, ptr %66, i32 0, i32 0
  %68 = load i32, ptr %67, align 8
  %69 = icmp eq i32 %68, 0
  br i1 %69, label %70, label %76

70:                                               ; preds = %64
  %71 = load ptr, ptr %4, align 8
  %72 = getelementptr inbounds %struct.RestorationInfo, ptr %71, i64 2
  %73 = getelementptr inbounds nuw %struct.RestorationInfo, ptr %72, i32 0, i32 0
  %74 = load i32, ptr %73, align 8
  %75 = icmp eq i32 %74, 0
  br label %76

76:                                               ; preds = %70, %64, %56
  %77 = phi i1 [ false, %64 ], [ false, %56 ], [ %75, %70 ]
  %78 = zext i1 %77 to i32
  store i32 %78, ptr %8, align 4
  %79 = load i32, ptr %6, align 4
  %80 = icmp ne i32 %79, 0
  br i1 %80, label %81, label %87

81:                                               ; preds = %76
  %82 = load i32, ptr %7, align 4
  %83 = icmp ne i32 %82, 0
  br i1 %83, label %84, label %87

84:                                               ; preds = %81
  %85 = load i32, ptr %8, align 4
  %86 = icmp ne i32 %85, 0
  br label %87

87:                                               ; preds = %84, %81, %76
  %88 = phi i1 [ false, %81 ], [ false, %76 ], [ %86, %84 ]
  %89 = zext i1 %88 to i32
  %90 = load ptr, ptr %2, align 8
  %91 = getelementptr inbounds nuw %struct.AV1Common, ptr %90, i32 0, i32 40
  %92 = getelementptr inbounds nuw %struct.CommonTileParams, ptr %91, i32 0, i32 18
  store i32 %89, ptr %92, align 8
  br label %93

93:                                               ; preds = %87, %1
  ret void
}