; Function Attrs: mustprogress nofree norecurse nosync nounwind willreturn memory(argmem: readwrite) uwtable
define hidden void @av1_set_single_tile_decoding_mode(ptr noundef captures(none) initializes((27720, 27724)) %0) local_unnamed_addr #2 {
  %2 = getelementptr inbounds nuw i8, ptr %0, i64 27720
  store i32 0, ptr %2, align 8
  %3 = getelementptr inbounds nuw i8, ptr %0, i64 27716
  %4 = load i32, ptr %3, align 4
  %.not = icmp eq i32 %4, 0
  br i1 %.not, label %41, label %5

5:                                                ; preds = %1
  %6 = getelementptr inbounds nuw i8, ptr %0, i64 23568
  %7 = getelementptr inbounds nuw i8, ptr %0, i64 23608
  %8 = load i32, ptr %6, align 4
  %.not17 = icmp eq i32 %8, 0
  br i1 %.not17, label %9, label %13

9:                                                ; preds = %5
  %10 = getelementptr inbounds nuw i8, ptr %0, i64 23572
  %11 = load i32, ptr %10, align 4
  %12 = icmp eq i32 %11, 0
  br label %13

13:                                               ; preds = %9, %5
  %14 = phi i1 [ false, %5 ], [ %12, %9 ]
  %15 = getelementptr inbounds nuw i8, ptr %0, i64 24160
  %16 = load i32, ptr %15, align 4
  %17 = icmp eq i32 %16, 0
  br i1 %17, label %18, label %26

18:                                               ; preds = %13
  %19 = getelementptr inbounds nuw i8, ptr %0, i64 24032
  %20 = load i32, ptr %19, align 4
  %21 = icmp eq i32 %20, 0
  br i1 %21, label %22, label %26

22:                                               ; preds = %18
  %23 = getelementptr inbounds nuw i8, ptr %0, i64 24096
  %24 = load i32, ptr %23, align 4
  %25 = icmp eq i32 %24, 0
  br label %26

26:                                               ; preds = %22, %18, %13
  %27 = phi i1 [ false, %18 ], [ false, %13 ], [ %25, %22 ]
  %28 = load i32, ptr %7, align 8
  %29 = icmp eq i32 %28, 0
  br i1 %29, label %30, label %39

30:                                               ; preds = %26
  %31 = getelementptr inbounds nuw i8, ptr %0, i64 23672
  %32 = load i32, ptr %31, align 8
  %33 = icmp eq i32 %32, 0
  br i1 %33, label %34, label %39

34:                                               ; preds = %30
  %35 = getelementptr inbounds nuw i8, ptr %0, i64 23736
  %36 = load i32, ptr %35, align 8
  %37 = icmp eq i32 %36, 0
  %38 = zext i1 %37 to i32
  br label %39

39:                                               ; preds = %34, %30, %26
  %40 = phi i32 [ 0, %30 ], [ 0, %26 ], [ %38, %34 ]
  %or.cond = select i1 %14, i1 %27, i1 false
  %spec.select = select i1 %or.cond, i32 %40, i32 0
  store i32 %spec.select, ptr %2, align 8
  br label %41

41:                                               ; preds = %39, %1
  ret void
}